target datalayout = "e-m:e-p270:32:32-p271:32:32-p272:64:64-i64:64-i128:128-f80:128-n8:16:32:64-S128"
target triple = "x86_64-pc-linux-gnu"

%struct.H5VL_connector_t = type { ptr, i64, ptr, ptr }

@.str = private unnamed_addr constant [106 x i8] c"generated/home/dtcxzyw/WorkSpace/Projects/compilers/llvm-opt-benchmark/bench/hdf5/hdf5/src/H5VLcallback.c\00", align 1
@H5E_ARGS_g = external global i64, align 8
@H5E_BADTYPE_g = external global i64, align 8
@.str.1 = private unnamed_addr constant [23 x i8] c"not a VOL connector ID\00", align 1
@H5E_VOL_g = external global i64, align 8
@H5E_CANTRELEASE_g = external global i64, align 8
@__func__.H5VLrequest_cancel = private unnamed_addr constant [19 x i8] c"H5VLrequest_cancel\00", align 1
@.str.148 = private unnamed_addr constant [25 x i8] c"unable to cancel request\00", align 1

; Function Attrs: nounwind uwtable
define i32 @H5VLrequest_cancel(ptr noundef %0, i64 noundef %1, ptr noundef %2) #0 {
  %4 = alloca ptr, align 8
  %5 = alloca i64, align 8
  %6 = alloca ptr, align 8
  %7 = alloca ptr, align 8
  %8 = alloca i32, align 4
  %9 = alloca i8, align 1
  store ptr %0, ptr %4, align 8, !tbaa !42
  store i64 %1, ptr %5, align 8, !tbaa !3
  store ptr %2, ptr %6, align 8, !tbaa !42
  call void @llvm.lifetime.start.p0(i64 8, ptr %7) #8
  call void @llvm.lifetime.start.p0(i64 4, ptr %8) #8
  store i32 0, ptr %8, align 4, !tbaa !7
  call void @llvm.lifetime.start.p0(i64 1, ptr %9) #8
  store i8 0, ptr %9, align 1, !tbaa !9
  %10 = load i64, ptr %5, align 8, !tbaa !3
  %11 = call ptr @H5I_object_verify(i64 noundef %10, i32 noundef 9)
  store ptr %11, ptr %7, align 8, !tbaa !11
  %12 = icmp eq ptr null, %11
  br i1 %12, label %13, label %32

13:                                               ; preds = %3
  br label %14

14:                                               ; preds = %13
  br label %15

15:                                               ; preds = %14
  br label %16

16:                                               ; preds = %15
  %17 = load i64, ptr @H5E_ARGS_g, align 8, !tbaa !3
  %18 = load i64, ptr @H5E_BADTYPE_g, align 8, !tbaa !3
  %19 = call i32 (ptr, ptr, i32, i64, i64, ptr, ...) @H5E_printf_stack(ptr noundef @.str, ptr noundef @__func__.H5VLrequest_cancel, i32 noundef 7018, i64 noundef %17, i64 noundef %18, ptr noundef @.str.1)
  br label %20

20:                                               ; preds = %16
  br label %21

21:                                               ; preds = %20
  store i8 1, ptr %9, align 1, !tbaa !9
  %22 = load i8, ptr %9, align 1, !tbaa !9, !range !14, !noundef !15
  %23 = trunc i8 %22 to i1
  %24 = zext i1 %23 to i8
  store i8 %24, ptr %9, align 1, !tbaa !9
  br label %25

25:                                               ; preds = %21
  br label %26

26:                                               ; preds = %25
  br label %27

27:                                               ; preds = %26
  store i32 -1, ptr %8, align 4, !tbaa !7
  br label %60

28:                                               ; No predecessors!
  br label %29

29:                                               ; preds = %28
  br label %30

30:                                               ; preds = %29
  br label %31

31:                                               ; preds = %30
  br label %32

32:                                               ; preds = %31, %3
  %33 = load ptr, ptr %4, align 8, !tbaa !42
  %34 = load ptr, ptr %7, align 8, !tbaa !11
  %35 = getelementptr inbounds nuw %struct.H5VL_connector_t, ptr %34, i32 0, i32 0
  %36 = load ptr, ptr %35, align 8, !tbaa !16
  %37 = load ptr, ptr %6, align 8, !tbaa !42
  %38 = call i32 @H5VL__request_cancel(ptr noundef %33, ptr noundef %36, ptr noundef %37)
  %39 = icmp slt i32 %38, 0
  br i1 %39, label %40, label %59

40:                                               ; preds = %32
  br label %41

41:                                               ; preds = %40
  br label %42

42:                                               ; preds = %41
  br label %43

43:                                               ; preds = %42
  %44 = load i64, ptr @H5E_VOL_g, align 8, !tbaa !3
  %45 = load i64, ptr @H5E_CANTRELEASE_g, align 8, !tbaa !3
  %46 = call i32 (ptr, ptr, i32, i64, i64, ptr, ...) @H5E_printf_stack(ptr noundef @.str, ptr noundef @__func__.H5VLrequest_cancel, i32 noundef 7022, i64 noundef %44, i64 noundef %45, ptr noundef @.str.148)
  br label %47

47:                                               ; preds = %43
  br label %48

48:                                               ; preds = %47
  store i8 1, ptr %9, align 1, !tbaa !9
  %49 = load i8, ptr %9, align 1, !tbaa !9, !range !14, !noundef !15
  %50 = trunc i8 %49 to i1
  %51 = zext i1 %50 to i8
  store i8 %51, ptr %9, align 1, !tbaa !9
  br label %52

52:                                               ; preds = %48
  br label %53

53:                                               ; preds = %52
  br label %54

54:                                               ; preds = %53
  store i32 -1, ptr %8, align 4, !tbaa !7
  br label %60

55:                                               ; No predecessors!
  br label %56

56:                                               ; preds = %55
  br label %57

57:                                               ; preds = %56
  br label %58

58:                                               ; preds = %57
  br label %59

59:                                               ; preds = %58, %32
  br label %60

60:                                               ; preds = %59, %54, %27
  %61 = load i8, ptr %9, align 1, !tbaa !9, !range !14, !noundef !15
  %62 = trunc i8 %61 to i1
  %63 = xor i1 %62, true
  %64 = xor i1 %63, true
  %65 = zext i1 %64 to i32
  %66 = sext i32 %65 to i64
  %67 = call i64 @llvm.expect.i64(i64 %66, i64 0)
  %68 = icmp ne i64 %67, 0
  br i1 %68, label %69, label %71

69:                                               ; preds = %60
  %70 = call i32 @H5E_dump_api_stack()
  br label %71

71:                                               ; preds = %69, %60
  %72 = load i32, ptr %8, align 4, !tbaa !7
  call void @llvm.lifetime.end.p0(i64 1, ptr %9) #8
  call void @llvm.lifetime.end.p0(i64 4, ptr %8) #8
  call void @llvm.lifetime.end.p0(i64 8, ptr %7) #8
  ret i32 %72
}