; Function Attrs: nounwind uwtable
define range(i32 -1, 1) i32 @H5VLrequest_cancel(ptr noundef %0, i64 noundef %1, ptr noundef %2) local_unnamed_addr #0 {
  %4 = tail call ptr @H5I_object_verify(i64 noundef %1, i32 noundef 9) #7
  %5 = icmp eq ptr %4, null
  br i1 %5, label %6, label %10, !prof !41

6:                                                ; preds = %3
  %7 = load i64, ptr @H5E_ARGS_g, align 8, !tbaa !3
  %8 = load i64, ptr @H5E_BADTYPE_g, align 8, !tbaa !3
  %9 = tail call i32 (ptr, ptr, i32, i64, i64, ptr, ...) @H5E_printf_stack(ptr noundef nonnull @.str, ptr noundef nonnull @__func__.H5VLrequest_cancel, i32 noundef 7018, i64 noundef %7, i64 noundef %8, ptr noundef nonnull @.str.1) #7
  br label %18

10:                                               ; preds = %3
  %11 = load ptr, ptr %4, align 8, !tbaa !7
  %12 = tail call fastcc i32 @H5VL__request_cancel(ptr noundef %0, ptr noundef %11, ptr noundef %2)
  %13 = icmp slt i32 %12, 0
  br i1 %13, label %14, label %20, !prof !41

14:                                               ; preds = %10
  %15 = load i64, ptr @H5E_VOL_g, align 8, !tbaa !3
  %16 = load i64, ptr @H5E_CANTRELEASE_g, align 8, !tbaa !3
  %17 = tail call i32 (ptr, ptr, i32, i64, i64, ptr, ...) @H5E_printf_stack(ptr noundef nonnull @.str, ptr noundef nonnull @__func__.H5VLrequest_cancel, i32 noundef 7022, i64 noundef %15, i64 noundef %16, ptr noundef nonnull @.str.148) #7
  br label %18

18:                                               ; preds = %6, %14
  %19 = tail call i32 @H5E_dump_api_stack() #7
  br label %20

20:                                               ; preds = %10, %18
  %.0711 = phi i32 [ -1, %18 ], [ 0, %10 ]
  ret i32 %.0711
}